; Function Attrs: mustprogress uwtable
define noundef zeroext i1 @_ZN32pxrInternal_v0_24__pxrReserved__13TraceReporter10AddCounterERKNS_7TfTokenEid(ptr nocapture noundef nonnull readonly align 8 dereferenceable(160) %0, ptr noundef nonnull align 8 dereferenceable(8) %1, i32 noundef %2, double noundef %3) local_unnamed_addr #1 align 2 {
  %5 = alloca %"class.pxrInternal_v0_24__pxrReserved__::TfCallContext", align 8
  %6 = getelementptr inbounds nuw i8, ptr %0, i64 144
  call void @llvm.lifetime.start.p0(i64 40, ptr nonnull %5)
  %7 = load ptr, ptr %6, align 8
  %.not.i = icmp eq ptr %7, null
  br i1 %.not.i, label %8, label %_ZNK32pxrInternal_v0_24__pxrReserved__8TfRefPtrINS_18TraceAggregateTreeEEptEv.exit

8:                                                ; preds = %4
  store ptr @.str.17, ptr %5, align 8
  %9 = getelementptr inbounds nuw i8, ptr %5, i64 8
  store ptr @__func__._ZNK32pxrInternal_v0_24__pxrReserved__8TfRefPtrINS_18TraceAggregateNodeEEptEv, ptr %9, align 8
  %10 = getelementptr inbounds nuw i8, ptr %5, i64 16
  store i64 936, ptr %10, align 8
  %11 = getelementptr inbounds nuw i8, ptr %5, i64 24
  store ptr @__PRETTY_FUNCTION__._ZNK32pxrInternal_v0_24__pxrReserved__8TfRefPtrINS_18TraceAggregateTreeEEptEv, ptr %11, align 8
  %12 = getelementptr inbounds nuw i8, ptr %5, i64 32
  store i8 0, ptr %12, align 8
  call void @_ZN32pxrInternal_v0_24__pxrReserved__40Tf_PostNullSmartPtrDereferenceFatalErrorERKNS_13TfCallContextEPKc(ptr noundef nonnull align 8 dereferenceable(33) %5, ptr noundef nonnull @_ZTSN32pxrInternal_v0_24__pxrReserved__8TfRefPtrINS_18TraceAggregateTreeEEE) #32
  unreachable

_ZNK32pxrInternal_v0_24__pxrReserved__8TfRefPtrINS_18TraceAggregateTreeEEptEv.exit: ; preds = %4
  call void @llvm.lifetime.end.p0(i64 40, ptr nonnull %5)
  %13 = tail call noundef zeroext i1 @_ZN32pxrInternal_v0_24__pxrReserved__18TraceAggregateTree10AddCounterERKNS_7TfTokenEid(ptr noundef nonnull align 8 dereferenceable(196) %7, ptr noundef nonnull align 8 dereferenceable(8) %1, i32 noundef %2, double noundef %3)
  ret i1 %13
}